; Function Attrs: mustprogress nofree norecurse nosync nounwind memory(read, argmem: readwrite, inaccessiblemem: none) uwtable
define internal fastcc void @_ZN5ceres8internalL10MTV_mat4x1EiPKdiS2_Pdi(i32 noundef %0, ptr nocapture noundef readonly %1, i32 noundef %2, ptr nocapture noundef readonly %3, ptr nocapture noundef %4) unnamed_addr #10 {
  %6 = and i32 %0, -4
  %7 = icmp sgt i32 %6, 0
  br i1 %7, label %.lr.ph, label %.preheader

.lr.ph:                                           ; preds = %5
  %8 = sext i32 %2 to i64
  br label %13

.preheader:                                       ; preds = %13, %5
  %.0116.lcssa = phi ptr [ %1, %5 ], [ %54, %13 ]
  %.0115.lcssa = phi ptr [ %3, %5 ], [ %55, %13 ]
  %9 = phi <2 x double> [ zeroinitializer, %5 ], [ %44, %13 ]
  %10 = phi <2 x double> [ zeroinitializer, %5 ], [ %53, %13 ]
  %11 = icmp slt i32 %6, %0
  br i1 %11, label %.lr.ph139, label %._crit_edge

.lr.ph139:                                        ; preds = %.preheader
  %12 = sext i32 %2 to i64
  br label %58

13:                                               ; preds = %.lr.ph, %13
  %.0114126 = phi i32 [ 0, %.lr.ph ], [ %56, %13 ]
  %.0115123 = phi ptr [ %3, %.lr.ph ], [ %55, %13 ]
  %.0116122 = phi ptr [ %1, %.lr.ph ], [ %54, %13 ]
  %14 = phi <2 x double> [ zeroinitializer, %.lr.ph ], [ %44, %13 ]
  %15 = phi <2 x double> [ zeroinitializer, %.lr.ph ], [ %53, %13 ]
  %16 = load double, ptr %.0115123, align 8
  %17 = getelementptr inbounds i8, ptr %.0116122, i64 16
  %18 = getelementptr inbounds double, ptr %.0116122, i64 %8
  %19 = getelementptr inbounds i8, ptr %.0115123, i64 8
  %20 = load double, ptr %19, align 8
  %21 = getelementptr inbounds i8, ptr %18, i64 16
  %22 = getelementptr inbounds double, ptr %18, i64 %8
  %23 = getelementptr inbounds i8, ptr %.0115123, i64 16
  %24 = load double, ptr %23, align 8
  %25 = getelementptr inbounds i8, ptr %22, i64 16
  %26 = getelementptr inbounds double, ptr %22, i64 %8
  %27 = getelementptr inbounds i8, ptr %.0115123, i64 24
  %28 = load double, ptr %27, align 8
  %29 = load <2 x double>, ptr %.0116122, align 8
  %30 = insertelement <2 x double> poison, double %16, i64 0
  %31 = shufflevector <2 x double> %30, <2 x double> poison, <2 x i32> zeroinitializer
  %32 = tail call <2 x double> @llvm.fmuladd.v2f64(<2 x double> %29, <2 x double> %31, <2 x double> %14)
  %33 = load <2 x double>, ptr %18, align 8
  %34 = insertelement <2 x double> poison, double %20, i64 0
  %35 = shufflevector <2 x double> %34, <2 x double> poison, <2 x i32> zeroinitializer
  %36 = tail call <2 x double> @llvm.fmuladd.v2f64(<2 x double> %33, <2 x double> %35, <2 x double> %32)
  %37 = load <2 x double>, ptr %22, align 8
  %38 = insertelement <2 x double> poison, double %24, i64 0
  %39 = shufflevector <2 x double> %38, <2 x double> poison, <2 x i32> zeroinitializer
  %40 = tail call <2 x double> @llvm.fmuladd.v2f64(<2 x double> %37, <2 x double> %39, <2 x double> %36)
  %41 = load <2 x double>, ptr %26, align 8
  %42 = insertelement <2 x double> poison, double %28, i64 0
  %43 = shufflevector <2 x double> %42, <2 x double> poison, <2 x i32> zeroinitializer
  %44 = tail call <2 x double> @llvm.fmuladd.v2f64(<2 x double> %41, <2 x double> %43, <2 x double> %40)
  %45 = getelementptr inbounds i8, ptr %26, i64 16
  %46 = load <2 x double>, ptr %17, align 8
  %47 = tail call <2 x double> @llvm.fmuladd.v2f64(<2 x double> %46, <2 x double> %31, <2 x double> %15)
  %48 = load <2 x double>, ptr %21, align 8
  %49 = tail call <2 x double> @llvm.fmuladd.v2f64(<2 x double> %48, <2 x double> %35, <2 x double> %47)
  %50 = load <2 x double>, ptr %25, align 8
  %51 = tail call <2 x double> @llvm.fmuladd.v2f64(<2 x double> %50, <2 x double> %39, <2 x double> %49)
  %52 = load <2 x double>, ptr %45, align 8
  %53 = tail call <2 x double> @llvm.fmuladd.v2f64(<2 x double> %52, <2 x double> %43, <2 x double> %51)
  %54 = getelementptr inbounds double, ptr %26, i64 %8
  %55 = getelementptr inbounds i8, ptr %.0115123, i64 32
  %56 = add nuw nsw i32 %.0114126, 4
  %57 = icmp slt i32 %56, %6
  br i1 %57, label %13, label %.preheader, !llvm.loop !17

58:                                               ; preds = %.lr.ph139, %58
  %.0138 = phi i32 [ %6, %.lr.ph139 ], [ %71, %58 ]
  %.1135 = phi ptr [ %.0115.lcssa, %.lr.ph139 ], [ %70, %58 ]
  %.1117134 = phi ptr [ %.0116.lcssa, %.lr.ph139 ], [ %69, %58 ]
  %59 = phi <2 x double> [ %9, %.lr.ph139 ], [ %65, %58 ]
  %60 = phi <2 x double> [ %10, %.lr.ph139 ], [ %68, %58 ]
  %61 = load double, ptr %.1135, align 8
  %62 = load <2 x double>, ptr %.1117134, align 8
  %63 = insertelement <2 x double> poison, double %61, i64 0
  %64 = shufflevector <2 x double> %63, <2 x double> poison, <2 x i32> zeroinitializer
  %65 = tail call <2 x double> @llvm.fmuladd.v2f64(<2 x double> %62, <2 x double> %64, <2 x double> %59)
  %66 = getelementptr inbounds i8, ptr %.1117134, i64 16
  %67 = load <2 x double>, ptr %66, align 8
  %68 = tail call <2 x double> @llvm.fmuladd.v2f64(<2 x double> %67, <2 x double> %64, <2 x double> %60)
  %69 = getelementptr inbounds double, ptr %.1117134, i64 %12
  %70 = getelementptr inbounds i8, ptr %.1135, i64 8
  %71 = add nsw i32 %.0138, 1
  %exitcond.not = icmp eq i32 %71, %0
  br i1 %exitcond.not, label %._crit_edge, label %58, !llvm.loop !18

._crit_edge:                                      ; preds = %58, %.preheader
  %72 = phi <2 x double> [ %9, %.preheader ], [ %65, %58 ]
  %73 = phi <2 x double> [ %10, %.preheader ], [ %68, %58 ]
  %74 = load <2 x double>, ptr %4, align 8
  %75 = fadd <2 x double> %72, %74
  store <2 x double> %75, ptr %4, align 8
  %76 = getelementptr inbounds i8, ptr %4, i64 16
  %77 = load <2 x double>, ptr %76, align 8
  %78 = fadd <2 x double> %73, %77
  store <2 x double> %78, ptr %76, align 8
  ret void
}